target datalayout = "e-m:e-p270:32:32-p271:32:32-p272:64:64-i64:64-i128:128-f80:128-n8:16:32:64-S128"
target triple = "x86_64-pc-linux-gnu"

%"class.i18n::phonenumbers::UnicodeText::const_iterator" = type { ptr }
%"class.i18n::phonenumbers::UnicodeText::Repr" = type <{ ptr, i32, i32, i8, i8, [6 x i8] }>
%"class.i18n::phonenumbers::UnicodeText" = type { %"class.i18n::phonenumbers::UnicodeText::Repr" }
%"class.i18n::phonenumbers::StringPiece" = type { ptr, i64 }

@_ZN4i18n12phonenumbers11StringPiece4nposE = external constant i64, align 8

; Function Attrs: mustprogress uwtable
define dso_local void @_ZNK4i18n12phonenumbers11UnicodeText3endEv(ptr dead_on_unwind noalias writable sret(%"class.i18n::phonenumbers::UnicodeText::const_iterator") align 8 %0, ptr noundef nonnull align 8 dereferenceable(24) %1) #0 align 2 {
  %3 = alloca ptr, align 8
  %4 = alloca ptr, align 8
  store ptr %0, ptr %3, align 8
  store ptr %1, ptr %4, align 8, !tbaa !41
  %5 = load ptr, ptr %4, align 8
  %6 = getelementptr inbounds nuw %"class.i18n::phonenumbers::UnicodeText", ptr %5, i32 0, i32 0
  %7 = getelementptr inbounds nuw %"class.i18n::phonenumbers::UnicodeText::Repr", ptr %6, i32 0, i32 0
  %8 = load ptr, ptr %7, align 8, !tbaa !44
  %9 = getelementptr inbounds nuw %"class.i18n::phonenumbers::UnicodeText", ptr %5, i32 0, i32 0
  %10 = getelementptr inbounds nuw %"class.i18n::phonenumbers::UnicodeText::Repr", ptr %9, i32 0, i32 1
  %11 = load i32, ptr %10, align 8, !tbaa !46
  %12 = sext i32 %11 to i64
  %13 = getelementptr inbounds i8, ptr %8, i64 %12
  call void @_ZN4i18n12phonenumbers11UnicodeText14const_iteratorC2EPKc(ptr noundef nonnull align 8 dereferenceable(8) %0, ptr noundef %13)
  ret void
}

; Function Attrs: mustprogress nounwind uwtable
define linkonce_odr dso_local noundef ptr @_ZNK4i18n12phonenumbers11UnicodeText14const_iterator9utf8_dataEv(ptr noundef nonnull align 8 dereferenceable(8) %0) #1 comdat align 2 {
  %2 = alloca ptr, align 8
  store ptr %0, ptr %2, align 8, !tbaa !4
  %3 = load ptr, ptr %2, align 8
  %4 = getelementptr inbounds nuw %"class.i18n::phonenumbers::UnicodeText::const_iterator", ptr %3, i32 0, i32 0
  %5 = load ptr, ptr %4, align 8, !tbaa !9
  ret ptr %5
}

; Function Attrs: mustprogress nounwind uwtable
define linkonce_odr dso_local void @_ZN4i18n12phonenumbers11StringPieceC2EPKcm(ptr noundef nonnull align 8 dereferenceable(16) %0, ptr noundef %1, i64 noundef %2) unnamed_addr #1 comdat align 2 {
  %4 = alloca ptr, align 8
  %5 = alloca ptr, align 8
  %6 = alloca i64, align 8
  store ptr %0, ptr %4, align 8, !tbaa !61
  store ptr %1, ptr %5, align 8, !tbaa !12
  store i64 %2, ptr %6, align 8, !tbaa !49
  %7 = load ptr, ptr %4, align 8
  %8 = getelementptr inbounds nuw %"class.i18n::phonenumbers::StringPiece", ptr %7, i32 0, i32 0
  %9 = load ptr, ptr %5, align 8, !tbaa !12
  store ptr %9, ptr %8, align 8, !tbaa !63
  %10 = getelementptr inbounds nuw %"class.i18n::phonenumbers::StringPiece", ptr %7, i32 0, i32 1
  %11 = load i64, ptr %6, align 8, !tbaa !49
  store i64 %11, ptr %10, align 8, !tbaa !65
  ret void
}

; Function Attrs: mustprogress nounwind uwtable
define linkonce_odr dso_local noundef i32 @_ZNK4i18n12phonenumbers11UnicodeText11utf8_lengthEv(ptr noundef nonnull align 8 dereferenceable(24) %0) #1 comdat align 2 {
  %2 = alloca ptr, align 8
  store ptr %0, ptr %2, align 8, !tbaa !41
  %3 = load ptr, ptr %2, align 8
  %4 = getelementptr inbounds nuw %"class.i18n::phonenumbers::UnicodeText", ptr %3, i32 0, i32 0
  %5 = getelementptr inbounds nuw %"class.i18n::phonenumbers::UnicodeText::Repr", ptr %4, i32 0, i32 1
  %6 = load i32, ptr %5, align 8, !tbaa !46
  ret i32 %6
}

; Function Attrs: mustprogress nounwind uwtable
define linkonce_odr dso_local noundef ptr @_ZNK4i18n12phonenumbers11UnicodeText9utf8_dataEv(ptr noundef nonnull align 8 dereferenceable(24) %0) #1 comdat align 2 {
  %2 = alloca ptr, align 8
  store ptr %0, ptr %2, align 8, !tbaa !41
  %3 = load ptr, ptr %2, align 8
  %4 = getelementptr inbounds nuw %"class.i18n::phonenumbers::UnicodeText", ptr %3, i32 0, i32 0
  %5 = getelementptr inbounds nuw %"class.i18n::phonenumbers::UnicodeText::Repr", ptr %4, i32 0, i32 0
  %6 = load ptr, ptr %5, align 8, !tbaa !44
  ret ptr %6
}

; Function Attrs: mustprogress nounwind uwtable
define linkonce_odr dso_local void @_ZN4i18n12phonenumbers11UnicodeText14const_iteratorC2EPKc(ptr noundef nonnull align 8 dereferenceable(8) %0, ptr noundef %1) unnamed_addr #1 comdat align 2 {
  %3 = alloca ptr, align 8
  %4 = alloca ptr, align 8
  store ptr %0, ptr %3, align 8, !tbaa !4
  store ptr %1, ptr %4, align 8, !tbaa !12
  %5 = load ptr, ptr %3, align 8
  %6 = getelementptr inbounds nuw %"class.i18n::phonenumbers::UnicodeText::const_iterator", ptr %5, i32 0, i32 0
  %7 = load ptr, ptr %4, align 8, !tbaa !12
  store ptr %7, ptr %6, align 8, !tbaa !9
  ret void
}

; Function Attrs: mustprogress uwtable
define dso_local void @_ZNK4i18n12phonenumbers11UnicodeText10UnsafeFindERKS1_NS1_14const_iteratorE(ptr dead_on_unwind noalias writable sret(%"class.i18n::phonenumbers::UnicodeText::const_iterator") align 8 %0, ptr noundef nonnull align 8 dereferenceable(24) %1, ptr noundef nonnull align 8 dereferenceable(24) %2, ptr noundef %3) #0 align 2 {
  %5 = alloca ptr, align 8
  %6 = alloca ptr, align 8
  %7 = alloca ptr, align 8
  %8 = alloca ptr, align 8
  %9 = alloca %"class.i18n::phonenumbers::StringPiece", align 8
  %10 = alloca %"class.i18n::phonenumbers::StringPiece", align 8
  %11 = alloca i64, align 8
  %12 = alloca i32, align 4
  store ptr %0, ptr %5, align 8
  store ptr %1, ptr %6, align 8, !tbaa !41
  store ptr %2, ptr %7, align 8, !tbaa !41
  store ptr %3, ptr %8, align 8, !tbaa !4
  %13 = load ptr, ptr %6, align 8
  call void @llvm.lifetime.start.p0(i64 16, ptr %9) #15
  %14 = call noundef ptr @_ZNK4i18n12phonenumbers11UnicodeText9utf8_dataEv(ptr noundef nonnull align 8 dereferenceable(24) %13)
  %15 = call noundef i32 @_ZNK4i18n12phonenumbers11UnicodeText11utf8_lengthEv(ptr noundef nonnull align 8 dereferenceable(24) %13)
  %16 = sext i32 %15 to i64
  call void @_ZN4i18n12phonenumbers11StringPieceC2EPKcm(ptr noundef nonnull align 8 dereferenceable(16) %9, ptr noundef %14, i64 noundef %16)
  call void @llvm.lifetime.start.p0(i64 16, ptr %10) #15
  %17 = load ptr, ptr %7, align 8, !tbaa !41
  %18 = call noundef ptr @_ZNK4i18n12phonenumbers11UnicodeText9utf8_dataEv(ptr noundef nonnull align 8 dereferenceable(24) %17)
  %19 = load ptr, ptr %7, align 8, !tbaa !41
  %20 = call noundef i32 @_ZNK4i18n12phonenumbers11UnicodeText11utf8_lengthEv(ptr noundef nonnull align 8 dereferenceable(24) %19)
  %21 = sext i32 %20 to i64
  call void @_ZN4i18n12phonenumbers11StringPieceC2EPKcm(ptr noundef nonnull align 8 dereferenceable(16) %10, ptr noundef %18, i64 noundef %21)
  call void @llvm.lifetime.start.p0(i64 8, ptr %11) #15
  %22 = call noundef ptr @_ZNK4i18n12phonenumbers11UnicodeText14const_iterator9utf8_dataEv(ptr noundef nonnull align 8 dereferenceable(8) %3)
  %23 = call noundef ptr @_ZNK4i18n12phonenumbers11UnicodeText9utf8_dataEv(ptr noundef nonnull align 8 dereferenceable(24) %13)
  %24 = ptrtoint ptr %22 to i64
  %25 = ptrtoint ptr %23 to i64
  %26 = sub i64 %24, %25
  %27 = call noundef i64 @_ZNK4i18n12phonenumbers11StringPiece4findERKS1_m(ptr noundef nonnull align 8 dereferenceable(16) %9, ptr noundef nonnull align 8 dereferenceable(16) %10, i64 noundef %26)
  store i64 %27, ptr %11, align 8, !tbaa !49
  %28 = load i64, ptr %11, align 8, !tbaa !49
  %29 = load i64, ptr @_ZN4i18n12phonenumbers11StringPiece4nposE, align 8, !tbaa !49
  %30 = icmp eq i64 %28, %29
  br i1 %30, label %31, label %32

31:                                               ; preds = %4
  call void @_ZNK4i18n12phonenumbers11UnicodeText3endEv(ptr dead_on_unwind writable sret(%"class.i18n::phonenumbers::UnicodeText::const_iterator") align 8 %0, ptr noundef nonnull align 8 dereferenceable(24) %13)
  store i32 1, ptr %12, align 4
  br label %36

32:                                               ; preds = %4
  %33 = call noundef ptr @_ZNK4i18n12phonenumbers11UnicodeText9utf8_dataEv(ptr noundef nonnull align 8 dereferenceable(24) %13)
  %34 = load i64, ptr %11, align 8, !tbaa !49
  %35 = getelementptr inbounds nuw i8, ptr %33, i64 %34
  call void @_ZN4i18n12phonenumbers11UnicodeText14const_iteratorC2EPKc(ptr noundef nonnull align 8 dereferenceable(8) %0, ptr noundef %35)
  store i32 1, ptr %12, align 4
  br label %36

36:                                               ; preds = %32, %31
  call void @llvm.lifetime.end.p0(i64 8, ptr %11) #15
  call void @llvm.lifetime.end.p0(i64 16, ptr %10) #15
  call void @llvm.lifetime.end.p0(i64 16, ptr %9) #15
  ret void
}

; Function Attrs: mustprogress uwtable
define dso_local void @_ZNK4i18n12phonenumbers11UnicodeText5beginEv(ptr dead_on_unwind noalias writable sret(%"class.i18n::phonenumbers::UnicodeText::const_iterator") align 8 %0, ptr noundef nonnull align 8 dereferenceable(24) %1) #0 align 2 {
  %3 = alloca ptr, align 8
  %4 = alloca ptr, align 8
  store ptr %0, ptr %3, align 8
  store ptr %1, ptr %4, align 8, !tbaa !41
  %5 = load ptr, ptr %4, align 8
  %6 = getelementptr inbounds nuw %"class.i18n::phonenumbers::UnicodeText", ptr %5, i32 0, i32 0
  %7 = getelementptr inbounds nuw %"class.i18n::phonenumbers::UnicodeText::Repr", ptr %6, i32 0, i32 0
  %8 = load ptr, ptr %7, align 8, !tbaa !44
  call void @_ZN4i18n12phonenumbers11UnicodeText14const_iteratorC2EPKc(ptr noundef nonnull align 8 dereferenceable(8) %0, ptr noundef %8)
  ret void
}

; Function Attrs: mustprogress uwtable
define dso_local void @_ZNK4i18n12phonenumbers11UnicodeText4findERKS1_(ptr dead_on_unwind noalias writable sret(%"class.i18n::phonenumbers::UnicodeText::const_iterator") align 8 %0, ptr noundef nonnull align 8 dereferenceable(24) %1, ptr noundef nonnull align 8 dereferenceable(24) %2) #0 align 2 {
  %4 = alloca ptr, align 8
  %5 = alloca ptr, align 8
  %6 = alloca ptr, align 8
  %7 = alloca %"class.i18n::phonenumbers::UnicodeText::const_iterator", align 8
  store ptr %0, ptr %4, align 8
  store ptr %1, ptr %5, align 8, !tbaa !41
  store ptr %2, ptr %6, align 8, !tbaa !41
  %8 = load ptr, ptr %5, align 8
  %9 = load ptr, ptr %6, align 8, !tbaa !41
  call void @_ZNK4i18n12phonenumbers11UnicodeText5beginEv(ptr dead_on_unwind writable sret(%"class.i18n::phonenumbers::UnicodeText::const_iterator") align 8 %7, ptr noundef nonnull align 8 dereferenceable(24) %8)
  call void @_ZNK4i18n12phonenumbers11UnicodeText10UnsafeFindERKS1_NS1_14const_iteratorE(ptr dead_on_unwind writable sret(%"class.i18n::phonenumbers::UnicodeText::const_iterator") align 8 %0, ptr noundef nonnull align 8 dereferenceable(24) %8, ptr noundef nonnull align 8 dereferenceable(24) %9, ptr noundef %7)
  ret void
}