; Function Attrs: mustprogress uwtable
define dso_local void @_ZNK4i18n12phonenumbers11UnicodeText4findERKS1_(ptr dead_on_unwind noalias writable writeonly sret(%"class.i18n::phonenumbers::UnicodeText::const_iterator") align 8 captures(none) initializes((0, 8)) %0, ptr noundef nonnull readonly align 8 captures(none) dereferenceable(24) %1, ptr noundef nonnull readonly align 8 captures(none) dereferenceable(24) %2) local_unnamed_addr #1 align 2 {
_ZNK4i18n12phonenumbers11UnicodeText10UnsafeFindERKS1_NS1_14const_iteratorE.exit:
  %3 = alloca %"class.i18n::phonenumbers::StringPiece", align 8
  %4 = alloca %"class.i18n::phonenumbers::StringPiece", align 8
  %5 = load ptr, ptr %1, align 8, !tbaa !44, !noalias !73
  tail call void @llvm.experimental.noalias.scope.decl(metadata !76)
  call void @llvm.lifetime.start.p0(i64 16, ptr nonnull %3) #27, !noalias !76
  %6 = getelementptr inbounds nuw i8, ptr %1, i64 8
  %7 = load i32, ptr %6, align 8, !tbaa !46, !noalias !76
  %8 = sext i32 %7 to i64
  store ptr %5, ptr %3, align 8, !tbaa !70, !noalias !76
  %9 = getelementptr inbounds nuw i8, ptr %3, i64 8
  store i64 %8, ptr %9, align 8, !tbaa !72, !noalias !76
  call void @llvm.lifetime.start.p0(i64 16, ptr nonnull %4) #27, !noalias !76
  %10 = load ptr, ptr %2, align 8, !tbaa !44, !noalias !76
  %11 = getelementptr inbounds nuw i8, ptr %2, i64 8
  %12 = load i32, ptr %11, align 8, !tbaa !46, !noalias !76
  %13 = sext i32 %12 to i64
  store ptr %10, ptr %4, align 8, !tbaa !70, !noalias !76
  %14 = getelementptr inbounds nuw i8, ptr %4, i64 8
  store i64 %13, ptr %14, align 8, !tbaa !72, !noalias !76
  %15 = call noundef i64 @_ZNK4i18n12phonenumbers11StringPiece4findERKS1_m(ptr noundef nonnull align 8 dereferenceable(16) %3, ptr noundef nonnull align 8 dereferenceable(16) %4, i64 noundef 0), !noalias !76
  %16 = load i64, ptr @_ZN4i18n12phonenumbers11StringPiece4nposE, align 8, !tbaa !47, !noalias !76
  %17 = icmp eq i64 %15, %16
  %18 = load ptr, ptr %1, align 8
  %19 = load i32, ptr %6, align 8
  %20 = sext i32 %19 to i64
  %storemerge.i.v = select i1 %17, i64 %20, i64 %15
  %storemerge.i = getelementptr inbounds i8, ptr %18, i64 %storemerge.i.v
  store ptr %storemerge.i, ptr %0, align 8, !tbaa !4, !alias.scope !76
  call void @llvm.lifetime.end.p0(i64 16, ptr nonnull %4) #27, !noalias !76
  call void @llvm.lifetime.end.p0(i64 16, ptr nonnull %3) #27, !noalias !76
  ret void
}